; Function Attrs: mustprogress uwtable
define void @_ZN6google8protobuf28UninterpretedOption_NamePartC2EPNS0_5ArenaERKS1_(ptr noundef nonnull align 8 dereferenceable(40) %this, ptr noundef %arena, ptr noundef nonnull align 8 dereferenceable(40) %from) unnamed_addr #3 align 2 personality ptr @__gxx_personality_v0 {
entry:
  %_internal_metadata_.i.i = getelementptr inbounds i8, ptr %this, i64 8
  %0 = ptrtoint ptr %arena to i64
  store i64 %0, ptr %_internal_metadata_.i.i, align 8
  store ptr getelementptr inbounds ({ [13 x ptr] }, ptr @_ZTVN6google8protobuf28UninterpretedOption_NamePartE, i64 0, i32 0, i64 2), ptr %this, align 8
  %_internal_metadata_2 = getelementptr inbounds i8, ptr %from, i64 8
  %1 = load i64, ptr %_internal_metadata_2, align 8
  %and.i22 = and i64 %1, 1
  %tobool.i23.not = icmp eq i64 %and.i22, 0
  br i1 %tobool.i23.not, label %invoke.cont3, label %if.then.i13

if.then.i13:                                      ; preds = %entry
  %and.i = and i64 %1, -2
  %2 = inttoptr i64 %and.i to ptr
  %unknown_fields.i = getelementptr inbounds i8, ptr %2, i64 8
  tail call void @_ZN6google8protobuf8internal16InternalMetadata11DoMergeFromINS0_15UnknownFieldSetEEEvRKT_(ptr noundef nonnull align 8 dereferenceable(8) %_internal_metadata_.i.i, ptr noundef nonnull align 8 dereferenceable(24) %unknown_fields.i)
  br label %invoke.cont3

invoke.cont3:                                     ; preds = %if.then.i13, %entry
  %3 = getelementptr inbounds i8, ptr %this, i64 16
  %4 = getelementptr inbounds i8, ptr %from, i64 16
  %5 = load i32, ptr %4, align 8
  store i32 %5, ptr %3, align 8
  %_cached_size_.i = getelementptr inbounds i8, ptr %this, i64 20
  store i32 0, ptr %_cached_size_.i, align 4
  %name_part_3.i = getelementptr inbounds i8, ptr %from, i64 24
  %6 = load ptr, ptr %name_part_3.i, align 8
  %7 = ptrtoint ptr %6 to i64
  %and.i.i.i = and i64 %7, 3
  %cmp.i.i.i = icmp eq i64 %and.i.i.i, 0
  br i1 %cmp.i.i.i, label %invoke.cont4, label %cond.false.i.i

cond.false.i.i:                                   ; preds = %invoke.cont3
  %call2.i.i6 = tail call ptr @_ZNK6google8protobuf8internal15TaggedStringPtr9ForceCopyEPNS0_5ArenaE(ptr noundef nonnull align 8 dereferenceable(8) %name_part_3.i, ptr noundef %arena)
  br label %invoke.cont4

invoke.cont4:                                     ; preds = %cond.false.i.i, %invoke.cont3
  %retval.sroa.0.0.i.i = phi ptr [ %6, %invoke.cont3 ], [ %call2.i.i6, %cond.false.i.i ]
  %name_part_.i = getelementptr inbounds i8, ptr %this, i64 24
  store ptr %retval.sroa.0.0.i.i, ptr %name_part_.i, align 8
  %is_extension_ = getelementptr inbounds i8, ptr %from, i64 32
  %8 = load i8, ptr %is_extension_, align 8
  %9 = and i8 %8, 1
  %is_extension_5 = getelementptr inbounds i8, ptr %this, i64 32
  store i8 %9, ptr %is_extension_5, align 8
  ret void
}